; Function Attrs: nounwind uwtable
define noalias ptr @__zend_strdup(ptr nocapture noundef readonly %0) local_unnamed_addr #0 {
  %2 = tail call noalias ptr @strdup(ptr noundef %0) #35
  %.not = icmp eq ptr %2, null
  br i1 %.not, label %4, label %3

3:                                                ; preds = %1
  ret ptr %2

4:                                                ; preds = %1
  tail call fastcc void @zend_out_of_memory() #34
  unreachable
}